; Function Attrs: nounwind uwtable
define noundef i32 @MD4_Final(ptr noundef writeonly captures(none) initializes((0, 16)) %0, ptr noundef %1) local_unnamed_addr #3 {
  %3 = getelementptr inbounds nuw i8, ptr %1, i64 24
  %4 = getelementptr inbounds nuw i8, ptr %1, i64 88
  %5 = load i32, ptr %4, align 4, !tbaa !9
  %6 = zext i32 %5 to i64
  %7 = getelementptr inbounds nuw i8, ptr %3, i64 %6
  store i8 -128, ptr %7, align 1, !tbaa !14
  %8 = add nuw nsw i64 %6, 1
  %9 = icmp ugt i32 %5, 55
  br i1 %9, label %10, label %13

10:                                               ; preds = %2
  %11 = getelementptr inbounds nuw i8, ptr %3, i64 %8
  %12 = sub nsw i64 63, %6
  tail call void @llvm.memset.p0.i64(ptr nonnull align 1 %11, i8 0, i64 %12, i1 false)
  tail call void @md4_block_data_order(ptr noundef nonnull %1, ptr noundef nonnull %3, i64 noundef 1)
  br label %13

13:                                               ; preds = %10, %2
  %.0 = phi i64 [ 0, %10 ], [ %8, %2 ]
  %14 = getelementptr inbounds nuw i8, ptr %3, i64 %.0
  %15 = sub nuw nsw i64 56, %.0
  tail call void @llvm.memset.p0.i64(ptr nonnull align 1 %14, i8 0, i64 %15, i1 false)
  %16 = getelementptr inbounds nuw i8, ptr %1, i64 80
  %17 = getelementptr inbounds nuw i8, ptr %1, i64 16
  %18 = load i32, ptr %17, align 4, !tbaa !3
  %19 = trunc i32 %18 to i8
  %20 = getelementptr inbounds nuw i8, ptr %1, i64 81
  store i8 %19, ptr %16, align 1, !tbaa !14
  %21 = lshr i32 %18, 8
  %22 = trunc i32 %21 to i8
  %23 = getelementptr inbounds nuw i8, ptr %1, i64 82
  store i8 %22, ptr %20, align 1, !tbaa !14
  %24 = lshr i32 %18, 16
  %25 = trunc i32 %24 to i8
  %26 = getelementptr inbounds nuw i8, ptr %1, i64 83
  store i8 %25, ptr %23, align 1, !tbaa !14
  %27 = lshr i32 %18, 24
  %28 = trunc nuw i32 %27 to i8
  %29 = getelementptr inbounds nuw i8, ptr %1, i64 84
  store i8 %28, ptr %26, align 1, !tbaa !14
  %30 = getelementptr inbounds nuw i8, ptr %1, i64 20
  %31 = load i32, ptr %30, align 4, !tbaa !8
  %32 = trunc i32 %31 to i8
  %33 = getelementptr inbounds nuw i8, ptr %1, i64 85
  store i8 %32, ptr %29, align 1, !tbaa !14
  %34 = lshr i32 %31, 8
  %35 = trunc i32 %34 to i8
  %36 = getelementptr inbounds nuw i8, ptr %1, i64 86
  store i8 %35, ptr %33, align 1, !tbaa !14
  %37 = lshr i32 %31, 16
  %38 = trunc i32 %37 to i8
  %39 = getelementptr inbounds nuw i8, ptr %1, i64 87
  store i8 %38, ptr %36, align 1, !tbaa !14
  %40 = lshr i32 %31, 24
  %41 = trunc nuw i32 %40 to i8
  store i8 %41, ptr %39, align 1, !tbaa !14
  tail call void @md4_block_data_order(ptr noundef nonnull %1, ptr noundef nonnull %3, i64 noundef 1)
  store i32 0, ptr %4, align 4, !tbaa !9
  tail call void @OPENSSL_cleanse(ptr noundef nonnull %3, i64 noundef 64) #7
  %42 = load i32, ptr %1, align 4, !tbaa !13
  %43 = trunc i32 %42 to i8
  %44 = getelementptr inbounds nuw i8, ptr %0, i64 1
  store i8 %43, ptr %0, align 1, !tbaa !14
  %45 = lshr i32 %42, 8
  %46 = trunc i32 %45 to i8
  %47 = getelementptr inbounds nuw i8, ptr %0, i64 2
  store i8 %46, ptr %44, align 1, !tbaa !14
  %48 = lshr i32 %42, 16
  %49 = trunc i32 %48 to i8
  %50 = getelementptr inbounds nuw i8, ptr %0, i64 3
  store i8 %49, ptr %47, align 1, !tbaa !14
  %51 = lshr i32 %42, 24
  %52 = trunc nuw i32 %51 to i8
  %53 = getelementptr inbounds nuw i8, ptr %0, i64 4
  store i8 %52, ptr %50, align 1, !tbaa !14
  %54 = getelementptr inbounds nuw i8, ptr %1, i64 4
  %55 = load i32, ptr %54, align 4, !tbaa !12
  %56 = trunc i32 %55 to i8
  %57 = getelementptr inbounds nuw i8, ptr %0, i64 5
  store i8 %56, ptr %53, align 1, !tbaa !14
  %58 = lshr i32 %55, 8
  %59 = trunc i32 %58 to i8
  %60 = getelementptr inbounds nuw i8, ptr %0, i64 6
  store i8 %59, ptr %57, align 1, !tbaa !14
  %61 = lshr i32 %55, 16
  %62 = trunc i32 %61 to i8
  %63 = getelementptr inbounds nuw i8, ptr %0, i64 7
  store i8 %62, ptr %60, align 1, !tbaa !14
  %64 = lshr i32 %55, 24
  %65 = trunc nuw i32 %64 to i8
  %66 = getelementptr inbounds nuw i8, ptr %0, i64 8
  store i8 %65, ptr %63, align 1, !tbaa !14
  %67 = getelementptr inbounds nuw i8, ptr %1, i64 8
  %68 = load i32, ptr %67, align 4, !tbaa !11
  %69 = trunc i32 %68 to i8
  %70 = getelementptr inbounds nuw i8, ptr %0, i64 9
  store i8 %69, ptr %66, align 1, !tbaa !14
  %71 = lshr i32 %68, 8
  %72 = trunc i32 %71 to i8
  %73 = getelementptr inbounds nuw i8, ptr %0, i64 10
  store i8 %72, ptr %70, align 1, !tbaa !14
  %74 = lshr i32 %68, 16
  %75 = trunc i32 %74 to i8
  %76 = getelementptr inbounds nuw i8, ptr %0, i64 11
  store i8 %75, ptr %73, align 1, !tbaa !14
  %77 = lshr i32 %68, 24
  %78 = trunc nuw i32 %77 to i8
  %79 = getelementptr inbounds nuw i8, ptr %0, i64 12
  store i8 %78, ptr %76, align 1, !tbaa !14
  %80 = getelementptr inbounds nuw i8, ptr %1, i64 12
  %81 = load i32, ptr %80, align 4, !tbaa !10
  %82 = trunc i32 %81 to i8
  %83 = getelementptr inbounds nuw i8, ptr %0, i64 13
  store i8 %82, ptr %79, align 1, !tbaa !14
  %84 = lshr i32 %81, 8
  %85 = trunc i32 %84 to i8
  %86 = getelementptr inbounds nuw i8, ptr %0, i64 14
  store i8 %85, ptr %83, align 1, !tbaa !14
  %87 = lshr i32 %81, 16
  %88 = trunc i32 %87 to i8
  %89 = getelementptr inbounds nuw i8, ptr %0, i64 15
  store i8 %88, ptr %86, align 1, !tbaa !14
  %90 = lshr i32 %81, 24
  %91 = trunc nuw i32 %90 to i8
  store i8 %91, ptr %89, align 1, !tbaa !14
  ret i32 1
}